target datalayout = "e-m:e-p270:32:32-p271:32:32-p272:64:64-i64:64-i128:128-f80:128-n8:16:32:64-S128"
target triple = "x86_64-pc-linux-gnu"

%struct.AVFilterContext = type { ptr, ptr, ptr, ptr, ptr, i32, ptr, ptr, i32, ptr, ptr, i32, i32, ptr, ptr, ptr, ptr, i32, ptr, i32, i32 }
%struct.AudioDynamicEqualizerContext = type { ptr, double, double, double, double, double, double, double, double, double, double, double, double, double, double, double, i32, i32, i32, i32, i32, i32, i32, ptr, ptr, [3 x double], [3 x double], [3 x float], [3 x float], ptr }
%struct.AVFilterLink = type { ptr, ptr, ptr, ptr, i32, i32, i32, i32, %struct.AVRational, i32, i32, i32, %struct.AVChannelLayout, %struct.AVRational, ptr, i32, %struct.AVFilterFormatsConfig, %struct.AVFilterFormatsConfig }
%struct.AVChannelLayout = type { i32, i32, %union.anon.1, ptr }
%union.anon.1 = type { i64 }
%struct.AVRational = type { i32, i32 }
%struct.AVFilterFormatsConfig = type { ptr, ptr, ptr, ptr, ptr }

; Function Attrs: nounwind uwtable
define internal double @get_coef(double noundef %0, double noundef %1) #1 {
  %3 = alloca double, align 8
  %4 = alloca double, align 8
  store double %0, ptr %3, align 8, !tbaa !70
  store double %1, ptr %4, align 8, !tbaa !70
  %5 = load double, ptr %3, align 8, !tbaa !70
  %6 = fmul nsz double 1.000000e-03, %5
  %7 = load double, ptr %4, align 8, !tbaa !70
  %8 = fmul nsz double %6, %7
  %9 = fdiv nsz double -1.000000e+00, %8
  %10 = call nsz double @llvm.exp.f64(double %9)
  %11 = fsub nsz double 1.000000e+00, %10
  ret double %11
}

; Function Attrs: nounwind uwtable
define internal i32 @filter_prepare_float(ptr noundef %0) #1 {
  %2 = alloca ptr, align 8
  %3 = alloca ptr, align 8
  %4 = alloca float, align 4
  %5 = alloca float, align 4
  %6 = alloca float, align 4
  %7 = alloca float, align 4
  %8 = alloca i32, align 4
  %9 = alloca ptr, align 8
  %10 = alloca ptr, align 8
  %11 = alloca float, align 4
  store ptr %0, ptr %2, align 8, !tbaa !4
  call void @llvm.lifetime.start.p0(i64 8, ptr %3) #8
  %12 = load ptr, ptr %2, align 8, !tbaa !4
  %13 = getelementptr inbounds nuw %struct.AVFilterContext, ptr %12, i32 0, i32 9
  %14 = load ptr, ptr %13, align 8, !tbaa !9
  store ptr %14, ptr %3, align 8, !tbaa !22
  call void @llvm.lifetime.start.p0(i64 4, ptr %4) #8
  %15 = load ptr, ptr %2, align 8, !tbaa !4
  %16 = getelementptr inbounds nuw %struct.AVFilterContext, ptr %15, i32 0, i32 4
  %17 = load ptr, ptr %16, align 8, !tbaa !69
  %18 = getelementptr inbounds ptr, ptr %17, i64 0
  %19 = load ptr, ptr %18, align 8, !tbaa !36
  %20 = getelementptr inbounds nuw %struct.AVFilterLink, ptr %19, i32 0, i32 11
  %21 = load i32, ptr %20, align 8, !tbaa !63
  %22 = sitofp i32 %21 to float
  store float %22, ptr %4, align 4, !tbaa !113
  call void @llvm.lifetime.start.p0(i64 4, ptr %5) #8
  %23 = load ptr, ptr %3, align 8, !tbaa !22
  %24 = getelementptr inbounds nuw %struct.AudioDynamicEqualizerContext, ptr %23, i32 0, i32 3
  %25 = load double, ptr %24, align 8, !tbaa !71
  %26 = fptrunc nsz double %25 to float
  %27 = load float, ptr %4, align 4, !tbaa !113
  %28 = fpext nsz float %27 to double
  %29 = fmul nsz double %28, 5.000000e-01
  %30 = fptrunc nsz double %29 to float
  %31 = call nsz float @llvm.minnum.f32(float %26, float %30)
  store float %31, ptr %5, align 4, !tbaa !113
  call void @llvm.lifetime.start.p0(i64 4, ptr %6) #8
  %32 = load float, ptr %5, align 4, !tbaa !113
  %33 = fpext nsz float %32 to double
  %34 = fmul nsz double 0x400921FB54442D18, %33
  %35 = load float, ptr %4, align 4, !tbaa !113
  %36 = fpext nsz float %35 to double
  %37 = fdiv nsz double %34, %36
  %38 = fptrunc nsz double %37 to float
  %39 = call nsz float @llvm.tan.f32(float %38)
  store float %39, ptr %6, align 4, !tbaa !113
  call void @llvm.lifetime.start.p0(i64 4, ptr %7) #8
  %40 = load ptr, ptr %3, align 8, !tbaa !22
  %41 = getelementptr inbounds nuw %struct.AudioDynamicEqualizerContext, ptr %40, i32 0, i32 4
  %42 = load double, ptr %41, align 8, !tbaa !72
  %43 = fptrunc nsz double %42 to float
  store float %43, ptr %7, align 4, !tbaa !113
  call void @llvm.lifetime.start.p0(i64 4, ptr %8) #8
  %44 = load ptr, ptr %3, align 8, !tbaa !22
  %45 = getelementptr inbounds nuw %struct.AudioDynamicEqualizerContext, ptr %44, i32 0, i32 19
  %46 = load i32, ptr %45, align 4, !tbaa !73
  store i32 %46, ptr %8, align 4, !tbaa !24
  call void @llvm.lifetime.start.p0(i64 8, ptr %9) #8
  %47 = load ptr, ptr %3, align 8, !tbaa !22
  %48 = getelementptr inbounds nuw %struct.AudioDynamicEqualizerContext, ptr %47, i32 0, i32 27
  %49 = getelementptr inbounds [3 x float], ptr %48, i64 0, i64 0
  store ptr %49, ptr %9, align 8, !tbaa !114
  call void @llvm.lifetime.start.p0(i64 8, ptr %10) #8
  %50 = load ptr, ptr %3, align 8, !tbaa !22
  %51 = getelementptr inbounds nuw %struct.AudioDynamicEqualizerContext, ptr %50, i32 0, i32 28
  %52 = getelementptr inbounds [3 x float], ptr %51, i64 0, i64 0
  store ptr %52, ptr %10, align 8, !tbaa !114
  call void @llvm.lifetime.start.p0(i64 4, ptr %11) #8
  %53 = load ptr, ptr %3, align 8, !tbaa !22
  %54 = getelementptr inbounds nuw %struct.AudioDynamicEqualizerContext, ptr %53, i32 0, i32 1
  %55 = load double, ptr %54, align 8, !tbaa !75
  %56 = fptrunc nsz double %55 to float
  %57 = call nsz float @llvm.log10.f32(float %56)
  %58 = fpext nsz float %57 to double
  %59 = fmul nsz double 2.000000e+01, %58
  %60 = load ptr, ptr %3, align 8, !tbaa !22
  %61 = getelementptr inbounds nuw %struct.AudioDynamicEqualizerContext, ptr %60, i32 0, i32 2
  store double %59, ptr %61, align 8, !tbaa !76
  %62 = load ptr, ptr %3, align 8, !tbaa !22
  %63 = getelementptr inbounds nuw %struct.AudioDynamicEqualizerContext, ptr %62, i32 0, i32 10
  %64 = load double, ptr %63, align 8, !tbaa !77
  %65 = load float, ptr %4, align 4, !tbaa !113
  %66 = fpext nsz float %65 to double
  %67 = call nsz double @get_coef(double noundef %64, double noundef %66)
  %68 = load ptr, ptr %3, align 8, !tbaa !22
  %69 = getelementptr inbounds nuw %struct.AudioDynamicEqualizerContext, ptr %68, i32 0, i32 12
  store double %67, ptr %69, align 8, !tbaa !78
  %70 = load ptr, ptr %3, align 8, !tbaa !22
  %71 = getelementptr inbounds nuw %struct.AudioDynamicEqualizerContext, ptr %70, i32 0, i32 11
  %72 = load double, ptr %71, align 8, !tbaa !79
  %73 = load float, ptr %4, align 4, !tbaa !113
  %74 = fpext nsz float %73 to double
  %75 = call nsz double @get_coef(double noundef %72, double noundef %74)
  %76 = load ptr, ptr %3, align 8, !tbaa !22
  %77 = getelementptr inbounds nuw %struct.AudioDynamicEqualizerContext, ptr %76, i32 0, i32 13
  store double %75, ptr %77, align 8, !tbaa !80
  %78 = load ptr, ptr %3, align 8, !tbaa !22
  %79 = getelementptr inbounds nuw %struct.AudioDynamicEqualizerContext, ptr %78, i32 0, i32 12
  %80 = load double, ptr %79, align 8, !tbaa !78
  %81 = fmul nsz double %80, 2.500000e-01
  %82 = load ptr, ptr %3, align 8, !tbaa !22
  %83 = getelementptr inbounds nuw %struct.AudioDynamicEqualizerContext, ptr %82, i32 0, i32 14
  store double %81, ptr %83, align 8, !tbaa !81
  %84 = load ptr, ptr %3, align 8, !tbaa !22
  %85 = getelementptr inbounds nuw %struct.AudioDynamicEqualizerContext, ptr %84, i32 0, i32 13
  %86 = load double, ptr %85, align 8, !tbaa !80
  %87 = fmul nsz double %86, 2.500000e-01
  %88 = load ptr, ptr %3, align 8, !tbaa !22
  %89 = getelementptr inbounds nuw %struct.AudioDynamicEqualizerContext, ptr %88, i32 0, i32 15
  store double %87, ptr %89, align 8, !tbaa !82
  %90 = load i32, ptr %8, align 4, !tbaa !24
  switch i32 %90, label %220 [
    i32 0, label %91
    i32 1, label %123
    i32 2, label %154
    i32 3, label %187
  ]

91:                                               ; preds = %1
  %92 = load float, ptr %7, align 4, !tbaa !113
  %93 = fdiv nsz float 1.000000e+00, %92
  store float %93, ptr %11, align 4, !tbaa !113
  %94 = load float, ptr %6, align 4, !tbaa !113
  %95 = load float, ptr %6, align 4, !tbaa !113
  %96 = load float, ptr %11, align 4, !tbaa !113
  %97 = fadd nsz float %95, %96
  %98 = call nsz float @llvm.fmuladd.f32(float %94, float %97, float 1.000000e+00)
  %99 = fdiv nsz float 1.000000e+00, %98
  %100 = load ptr, ptr %9, align 8, !tbaa !114
  %101 = getelementptr inbounds float, ptr %100, i64 0
  store float %99, ptr %101, align 4, !tbaa !113
  %102 = load float, ptr %6, align 4, !tbaa !113
  %103 = load ptr, ptr %9, align 8, !tbaa !114
  %104 = getelementptr inbounds float, ptr %103, i64 0
  %105 = load float, ptr %104, align 4, !tbaa !113
  %106 = fmul nsz float %102, %105
  %107 = load ptr, ptr %9, align 8, !tbaa !114
  %108 = getelementptr inbounds float, ptr %107, i64 1
  store float %106, ptr %108, align 4, !tbaa !113
  %109 = load float, ptr %6, align 4, !tbaa !113
  %110 = load ptr, ptr %9, align 8, !tbaa !114
  %111 = getelementptr inbounds float, ptr %110, i64 1
  %112 = load float, ptr %111, align 4, !tbaa !113
  %113 = fmul nsz float %109, %112
  %114 = load ptr, ptr %9, align 8, !tbaa !114
  %115 = getelementptr inbounds float, ptr %114, i64 2
  store float %113, ptr %115, align 4, !tbaa !113
  %116 = load ptr, ptr %10, align 8, !tbaa !114
  %117 = getelementptr inbounds float, ptr %116, i64 0
  store float 0.000000e+00, ptr %117, align 4, !tbaa !113
  %118 = load float, ptr %11, align 4, !tbaa !113
  %119 = load ptr, ptr %10, align 8, !tbaa !114
  %120 = getelementptr inbounds float, ptr %119, i64 1
  store float %118, ptr %120, align 4, !tbaa !113
  %121 = load ptr, ptr %10, align 8, !tbaa !114
  %122 = getelementptr inbounds float, ptr %121, i64 2
  store float 0.000000e+00, ptr %122, align 4, !tbaa !113
  br label %220

123:                                              ; preds = %1
  %124 = load float, ptr %7, align 4, !tbaa !113
  %125 = fdiv nsz float 1.000000e+00, %124
  store float %125, ptr %11, align 4, !tbaa !113
  %126 = load float, ptr %6, align 4, !tbaa !113
  %127 = load float, ptr %6, align 4, !tbaa !113
  %128 = load float, ptr %11, align 4, !tbaa !113
  %129 = fadd nsz float %127, %128
  %130 = call nsz float @llvm.fmuladd.f32(float %126, float %129, float 1.000000e+00)
  %131 = fdiv nsz float 1.000000e+00, %130
  %132 = load ptr, ptr %9, align 8, !tbaa !114
  %133 = getelementptr inbounds float, ptr %132, i64 0
  store float %131, ptr %133, align 4, !tbaa !113
  %134 = load float, ptr %6, align 4, !tbaa !113
  %135 = load ptr, ptr %9, align 8, !tbaa !114
  %136 = getelementptr inbounds float, ptr %135, i64 0
  %137 = load float, ptr %136, align 4, !tbaa !113
  %138 = fmul nsz float %134, %137
  %139 = load ptr, ptr %9, align 8, !tbaa !114
  %140 = getelementptr inbounds float, ptr %139, i64 1
  store float %138, ptr %140, align 4, !tbaa !113
  %141 = load float, ptr %6, align 4, !tbaa !113
  %142 = load ptr, ptr %9, align 8, !tbaa !114
  %143 = getelementptr inbounds float, ptr %142, i64 1
  %144 = load float, ptr %143, align 4, !tbaa !113
  %145 = fmul nsz float %141, %144
  %146 = load ptr, ptr %9, align 8, !tbaa !114
  %147 = getelementptr inbounds float, ptr %146, i64 2
  store float %145, ptr %147, align 4, !tbaa !113
  %148 = load ptr, ptr %10, align 8, !tbaa !114
  %149 = getelementptr inbounds float, ptr %148, i64 0
  store float 0.000000e+00, ptr %149, align 4, !tbaa !113
  %150 = load ptr, ptr %10, align 8, !tbaa !114
  %151 = getelementptr inbounds float, ptr %150, i64 1
  store float 0.000000e+00, ptr %151, align 4, !tbaa !113
  %152 = load ptr, ptr %10, align 8, !tbaa !114
  %153 = getelementptr inbounds float, ptr %152, i64 2
  store float 1.000000e+00, ptr %153, align 4, !tbaa !113
  br label %220

154:                                              ; preds = %1
  %155 = load float, ptr %7, align 4, !tbaa !113
  %156 = fdiv nsz float 1.000000e+00, %155
  store float %156, ptr %11, align 4, !tbaa !113
  %157 = load float, ptr %6, align 4, !tbaa !113
  %158 = load float, ptr %6, align 4, !tbaa !113
  %159 = load float, ptr %11, align 4, !tbaa !113
  %160 = fadd nsz float %158, %159
  %161 = call nsz float @llvm.fmuladd.f32(float %157, float %160, float 1.000000e+00)
  %162 = fdiv nsz float 1.000000e+00, %161
  %163 = load ptr, ptr %9, align 8, !tbaa !114
  %164 = getelementptr inbounds float, ptr %163, i64 0
  store float %162, ptr %164, align 4, !tbaa !113
  %165 = load float, ptr %6, align 4, !tbaa !113
  %166 = load ptr, ptr %9, align 8, !tbaa !114
  %167 = getelementptr inbounds float, ptr %166, i64 0
  %168 = load float, ptr %167, align 4, !tbaa !113
  %169 = fmul nsz float %165, %168
  %170 = load ptr, ptr %9, align 8, !tbaa !114
  %171 = getelementptr inbounds float, ptr %170, i64 1
  store float %169, ptr %171, align 4, !tbaa !113
  %172 = load float, ptr %6, align 4, !tbaa !113
  %173 = load ptr, ptr %9, align 8, !tbaa !114
  %174 = getelementptr inbounds float, ptr %173, i64 1
  %175 = load float, ptr %174, align 4, !tbaa !113
  %176 = fmul nsz float %172, %175
  %177 = load ptr, ptr %9, align 8, !tbaa !114
  %178 = getelementptr inbounds float, ptr %177, i64 2
  store float %176, ptr %178, align 4, !tbaa !113
  %179 = load ptr, ptr %10, align 8, !tbaa !114
  %180 = getelementptr inbounds float, ptr %179, i64 0
  store float 0.000000e+00, ptr %180, align 4, !tbaa !113
  %181 = load float, ptr %11, align 4, !tbaa !113
  %182 = fneg nsz float %181
  %183 = load ptr, ptr %10, align 8, !tbaa !114
  %184 = getelementptr inbounds float, ptr %183, i64 1
  store float %182, ptr %184, align 4, !tbaa !113
  %185 = load ptr, ptr %10, align 8, !tbaa !114
  %186 = getelementptr inbounds float, ptr %185, i64 2
  store float -1.000000e+00, ptr %186, align 4, !tbaa !113
  br label %220

187:                                              ; preds = %1
  %188 = load float, ptr %7, align 4, !tbaa !113
  %189 = fdiv nsz float 1.000000e+00, %188
  store float %189, ptr %11, align 4, !tbaa !113
  %190 = load float, ptr %6, align 4, !tbaa !113
  %191 = load float, ptr %6, align 4, !tbaa !113
  %192 = load float, ptr %11, align 4, !tbaa !113
  %193 = fadd nsz float %191, %192
  %194 = call nsz float @llvm.fmuladd.f32(float %190, float %193, float 1.000000e+00)
  %195 = fdiv nsz float 1.000000e+00, %194
  %196 = load ptr, ptr %9, align 8, !tbaa !114
  %197 = getelementptr inbounds float, ptr %196, i64 0
  store float %195, ptr %197, align 4, !tbaa !113
  %198 = load float, ptr %6, align 4, !tbaa !113
  %199 = load ptr, ptr %9, align 8, !tbaa !114
  %200 = getelementptr inbounds float, ptr %199, i64 0
  %201 = load float, ptr %200, align 4, !tbaa !113
  %202 = fmul nsz float %198, %201
  %203 = load ptr, ptr %9, align 8, !tbaa !114
  %204 = getelementptr inbounds float, ptr %203, i64 1
  store float %202, ptr %204, align 4, !tbaa !113
  %205 = load float, ptr %6, align 4, !tbaa !113
  %206 = load ptr, ptr %9, align 8, !tbaa !114
  %207 = getelementptr inbounds float, ptr %206, i64 1
  %208 = load float, ptr %207, align 4, !tbaa !113
  %209 = fmul nsz float %205, %208
  %210 = load ptr, ptr %9, align 8, !tbaa !114
  %211 = getelementptr inbounds float, ptr %210, i64 2
  store float %209, ptr %211, align 4, !tbaa !113
  %212 = load ptr, ptr %10, align 8, !tbaa !114
  %213 = getelementptr inbounds float, ptr %212, i64 0
  store float 1.000000e+00, ptr %213, align 4, !tbaa !113
  %214 = load float, ptr %11, align 4, !tbaa !113
  %215 = fneg nsz float %214
  %216 = load ptr, ptr %10, align 8, !tbaa !114
  %217 = getelementptr inbounds float, ptr %216, i64 1
  store float %215, ptr %217, align 4, !tbaa !113
  %218 = load ptr, ptr %10, align 8, !tbaa !114
  %219 = getelementptr inbounds float, ptr %218, i64 2
  store float -2.000000e+00, ptr %219, align 4, !tbaa !113
  br label %220

220:                                              ; preds = %1, %187, %154, %123, %91
  call void @llvm.lifetime.end.p0(i64 4, ptr %11) #8
  call void @llvm.lifetime.end.p0(i64 8, ptr %10) #8
  call void @llvm.lifetime.end.p0(i64 8, ptr %9) #8
  call void @llvm.lifetime.end.p0(i64 4, ptr %8) #8
  call void @llvm.lifetime.end.p0(i64 4, ptr %7) #8
  call void @llvm.lifetime.end.p0(i64 4, ptr %6) #8
  call void @llvm.lifetime.end.p0(i64 4, ptr %5) #8
  call void @llvm.lifetime.end.p0(i64 4, ptr %4) #8
  call void @llvm.lifetime.end.p0(i64 8, ptr %3) #8
  ret i32 0
}