; Function Attrs: mustprogress nofree norecurse nosync nounwind willreturn memory(readwrite, inaccessiblemem: none) uwtable
define internal noundef i32 @filter_prepare_float(ptr noundef readonly captures(none) %0) #5 {
  %2 = getelementptr inbounds nuw i8, ptr %0, i64 72
  %3 = load ptr, ptr %2, align 8, !tbaa !4
  %4 = getelementptr inbounds nuw i8, ptr %0, i64 32
  %5 = load ptr, ptr %4, align 8, !tbaa !62
  %6 = load ptr, ptr %5, align 8, !tbaa !40
  %7 = getelementptr inbounds nuw i8, ptr %6, i64 64
  %8 = load i32, ptr %7, align 8, !tbaa !57
  %9 = sitofp i32 %8 to float
  %10 = getelementptr inbounds nuw i8, ptr %3, i64 24
  %11 = load double, ptr %10, align 8, !tbaa !63
  %12 = fptrunc nsz double %11 to float
  %13 = fpext nsz float %9 to double
  %14 = fmul nsz float %9, 5.000000e-01
  %15 = tail call nsz float @llvm.minnum.f32(float %12, float %14)
  %16 = fpext nsz float %15 to double
  %17 = fmul nsz double %16, 0x400921FB54442D18
  %18 = fdiv nsz double %17, %13
  %19 = fptrunc nsz double %18 to float
  %20 = tail call nsz float @llvm.tan.f32(float %19)
  %21 = getelementptr inbounds nuw i8, ptr %3, i64 32
  %22 = load double, ptr %21, align 8, !tbaa !64
  %23 = fptrunc nsz double %22 to float
  %24 = getelementptr inbounds nuw i8, ptr %3, i64 140
  %25 = load i32, ptr %24, align 4, !tbaa !65
  %26 = getelementptr inbounds nuw i8, ptr %3, i64 224
  %27 = getelementptr inbounds nuw i8, ptr %3, i64 236
  %28 = getelementptr inbounds nuw i8, ptr %3, i64 8
  %29 = load double, ptr %28, align 8, !tbaa !66
  %30 = fptrunc nsz double %29 to float
  %31 = tail call nsz float @llvm.log10.f32(float %30)
  %32 = fpext nsz float %31 to double
  %33 = fmul nsz double %32, 2.000000e+01
  %34 = getelementptr inbounds nuw i8, ptr %3, i64 16
  store double %33, ptr %34, align 8, !tbaa !67
  %35 = getelementptr inbounds nuw i8, ptr %3, i64 80
  %36 = load double, ptr %35, align 8, !tbaa !68
  %37 = fmul nsz double %36, 1.000000e-03
  %38 = fmul nsz double %37, %13
  %39 = fdiv nsz double -1.000000e+00, %38
  %40 = tail call nsz double @llvm.exp.f64(double %39)
  %41 = fsub nsz double 1.000000e+00, %40
  %42 = getelementptr inbounds nuw i8, ptr %3, i64 96
  store double %41, ptr %42, align 8, !tbaa !69
  %43 = getelementptr inbounds nuw i8, ptr %3, i64 88
  %44 = load double, ptr %43, align 8, !tbaa !70
  %45 = fmul nsz double %44, 1.000000e-03
  %46 = fmul nsz double %45, %13
  %47 = fdiv nsz double -1.000000e+00, %46
  %48 = tail call nsz double @llvm.exp.f64(double %47)
  %49 = fsub nsz double 1.000000e+00, %48
  %50 = getelementptr inbounds nuw i8, ptr %3, i64 104
  store double %49, ptr %50, align 8, !tbaa !71
  %51 = fmul nsz double %41, 2.500000e-01
  %52 = getelementptr inbounds nuw i8, ptr %3, i64 112
  store double %51, ptr %52, align 8, !tbaa !72
  %53 = fmul nsz double %49, 2.500000e-01
  %54 = getelementptr inbounds nuw i8, ptr %3, i64 120
  store double %53, ptr %54, align 8, !tbaa !73
  switch i32 %25, label %95 [
    i32 0, label %55
    i32 1, label %64
    i32 2, label %73
    i32 3, label %83
  ]

55:                                               ; preds = %1
  %56 = fdiv nsz float 1.000000e+00, %23
  %57 = fadd nsz float %56, %20
  %58 = tail call nsz float @llvm.fmuladd.f32(float %20, float %57, float 1.000000e+00)
  %59 = fdiv nsz float 1.000000e+00, %58
  store float %59, ptr %26, align 4, !tbaa !108
  %60 = fmul nsz float %20, %59
  %61 = getelementptr inbounds nuw i8, ptr %3, i64 228
  store float %60, ptr %61, align 4, !tbaa !108
  %62 = fmul nsz float %20, %60
  %63 = getelementptr inbounds nuw i8, ptr %3, i64 232
  store float %62, ptr %63, align 4, !tbaa !108
  store float 0.000000e+00, ptr %27, align 4, !tbaa !108
  br label %.sink.split

64:                                               ; preds = %1
  %65 = fdiv nsz float 1.000000e+00, %23
  %66 = fadd nsz float %65, %20
  %67 = tail call nsz float @llvm.fmuladd.f32(float %20, float %66, float 1.000000e+00)
  %68 = fdiv nsz float 1.000000e+00, %67
  store float %68, ptr %26, align 4, !tbaa !108
  %69 = fmul nsz float %20, %68
  %70 = getelementptr inbounds nuw i8, ptr %3, i64 228
  store float %69, ptr %70, align 4, !tbaa !108
  %71 = fmul nsz float %20, %69
  %72 = getelementptr inbounds nuw i8, ptr %3, i64 232
  store float %71, ptr %72, align 4, !tbaa !108
  store float 0.000000e+00, ptr %27, align 4, !tbaa !108
  br label %.sink.split

73:                                               ; preds = %1
  %74 = fdiv nsz float 1.000000e+00, %23
  %75 = fadd nsz float %74, %20
  %76 = tail call nsz float @llvm.fmuladd.f32(float %20, float %75, float 1.000000e+00)
  %77 = fdiv nsz float 1.000000e+00, %76
  store float %77, ptr %26, align 4, !tbaa !108
  %78 = fmul nsz float %20, %77
  %79 = getelementptr inbounds nuw i8, ptr %3, i64 228
  store float %78, ptr %79, align 4, !tbaa !108
  %80 = fmul nsz float %20, %78
  %81 = getelementptr inbounds nuw i8, ptr %3, i64 232
  store float %80, ptr %81, align 4, !tbaa !108
  store float 0.000000e+00, ptr %27, align 4, !tbaa !108
  %82 = fneg nsz float %74
  br label %.sink.split

83:                                               ; preds = %1
  %84 = fdiv nsz float 1.000000e+00, %23
  %85 = fadd nsz float %84, %20
  %86 = tail call nsz float @llvm.fmuladd.f32(float %20, float %85, float 1.000000e+00)
  %87 = fdiv nsz float 1.000000e+00, %86
  store float %87, ptr %26, align 4, !tbaa !108
  %88 = fmul nsz float %20, %87
  %89 = getelementptr inbounds nuw i8, ptr %3, i64 228
  store float %88, ptr %89, align 4, !tbaa !108
  %90 = fmul nsz float %20, %88
  %91 = getelementptr inbounds nuw i8, ptr %3, i64 232
  store float %90, ptr %91, align 4, !tbaa !108
  store float 1.000000e+00, ptr %27, align 4, !tbaa !108
  %92 = fneg nsz float %84
  br label %.sink.split

.sink.split:                                      ; preds = %55, %64, %73, %83
  %.sink82 = phi float [ %92, %83 ], [ %82, %73 ], [ 0.000000e+00, %64 ], [ %56, %55 ]
  %.sink = phi float [ -2.000000e+00, %83 ], [ -1.000000e+00, %73 ], [ 1.000000e+00, %64 ], [ 0.000000e+00, %55 ]
  %93 = getelementptr inbounds nuw i8, ptr %3, i64 240
  store float %.sink82, ptr %93, align 4, !tbaa !108
  %94 = getelementptr inbounds nuw i8, ptr %3, i64 244
  store float %.sink, ptr %94, align 4, !tbaa !108
  br label %95

95:                                               ; preds = %.sink.split, %1
  ret i32 0
}